target datalayout = "e-m:e-p270:32:32-p271:32:32-p272:64:64-i64:64-i128:128-f80:128-n8:16:32:64-S128"
target triple = "x86_64-pc-linux-gnu"

%struct._object = type { %union.anon, ptr }
%union.anon = type { i64 }

@_Py_NoneStruct = external global %struct._object, align 8
@.str.51 = private unnamed_addr constant [17 x i8] c"PyErr_Occurred()\00", align 1
@.str.52 = private unnamed_addr constant [47 x i8] c"../cpython/Modules/_testlimitedcapi/abstract.c\00", align 1
@.str.53 = private unnamed_addr constant [18 x i8] c"!PyErr_Occurred()\00", align 1
@.str.54 = private unnamed_addr constant [5 x i8] c"Oz#O\00", align 1
@__PRETTY_FUNCTION__.object_setattrstring = private unnamed_addr constant [55 x i8] c"PyObject *object_setattrstring(PyObject *, PyObject *)\00", align 1

; Function Attrs: nounwind uwtable
define internal ptr @object_setattrstring(ptr noundef %0, ptr noundef %1) #0 {
  %3 = alloca ptr, align 8
  %4 = alloca ptr, align 8
  %5 = alloca ptr, align 8
  %6 = alloca ptr, align 8
  %7 = alloca ptr, align 8
  %8 = alloca ptr, align 8
  %9 = alloca i64, align 8
  %10 = alloca i32, align 4
  %11 = alloca i32, align 4
  store ptr %0, ptr %4, align 8, !tbaa !3
  store ptr %1, ptr %5, align 8, !tbaa !3
  call void @llvm.lifetime.start.p0(i64 8, ptr %6) #4
  call void @llvm.lifetime.start.p0(i64 8, ptr %7) #4
  call void @llvm.lifetime.start.p0(i64 8, ptr %8) #4
  call void @llvm.lifetime.start.p0(i64 8, ptr %9) #4
  %12 = load ptr, ptr %5, align 8, !tbaa !3
  %13 = call i32 (ptr, ptr, ...) @PyArg_ParseTuple(ptr noundef %12, ptr noundef @.str.54, ptr noundef %6, ptr noundef %8, ptr noundef %9, ptr noundef %7)
  %14 = icmp ne i32 %13, 0
  br i1 %14, label %16, label %15

15:                                               ; preds = %2
  store ptr null, ptr %3, align 8
  store i32 1, ptr %10, align 4
  br label %58

16:                                               ; preds = %2
  br label %17

17:                                               ; preds = %16
  %18 = load ptr, ptr %6, align 8, !tbaa !3
  %19 = icmp eq ptr %18, @_Py_NoneStruct
  br i1 %19, label %20, label %21

20:                                               ; preds = %17
  store ptr null, ptr %6, align 8, !tbaa !3
  br label %21

21:                                               ; preds = %20, %17
  br label %22

22:                                               ; preds = %21
  br label %23

23:                                               ; preds = %22
  br label %24

24:                                               ; preds = %23
  %25 = load ptr, ptr %7, align 8, !tbaa !3
  %26 = icmp eq ptr %25, @_Py_NoneStruct
  br i1 %26, label %27, label %28

27:                                               ; preds = %24
  store ptr null, ptr %7, align 8, !tbaa !3
  br label %28

28:                                               ; preds = %27, %24
  br label %29

29:                                               ; preds = %28
  br label %30

30:                                               ; preds = %29
  br label %31

31:                                               ; preds = %30
  call void @llvm.lifetime.start.p0(i64 4, ptr %11) #4
  %32 = load ptr, ptr %6, align 8, !tbaa !3
  %33 = load ptr, ptr %8, align 8, !tbaa !8
  %34 = load ptr, ptr %7, align 8, !tbaa !3
  %35 = call i32 @PyObject_SetAttrString(ptr noundef %32, ptr noundef %33, ptr noundef %34)
  store i32 %35, ptr %11, align 4, !tbaa !10
  %36 = load i32, ptr %11, align 4, !tbaa !10
  %37 = icmp eq i32 %36, -1
  br i1 %37, label %38, label %45

38:                                               ; preds = %31
  %39 = call ptr @PyErr_Occurred()
  %40 = icmp ne ptr %39, null
  br i1 %40, label %41, label %42

41:                                               ; preds = %38
  br label %44

42:                                               ; preds = %38
  call void @__assert_fail(ptr noundef @.str.51, ptr noundef @.str.52, i32 noundef 107, ptr noundef @__PRETTY_FUNCTION__.object_setattrstring) #5
  unreachable

43:                                               ; No predecessors!
  br label %44

44:                                               ; preds = %43, %41
  store ptr null, ptr %3, align 8
  store i32 1, ptr %10, align 4
  br label %55

45:                                               ; preds = %31
  %46 = call ptr @PyErr_Occurred()
  %47 = icmp ne ptr %46, null
  br i1 %47, label %49, label %48

48:                                               ; preds = %45
  br label %51

49:                                               ; preds = %45
  call void @__assert_fail(ptr noundef @.str.53, ptr noundef @.str.52, i32 noundef 107, ptr noundef @__PRETTY_FUNCTION__.object_setattrstring) #5
  unreachable

50:                                               ; No predecessors!
  br label %51

51:                                               ; preds = %50, %48
  %52 = load i32, ptr %11, align 4, !tbaa !10
  %53 = sext i32 %52 to i64
  %54 = call ptr @PyLong_FromLong(i64 noundef %53)
  store ptr %54, ptr %3, align 8
  store i32 1, ptr %10, align 4
  br label %55

55:                                               ; preds = %51, %44
  call void @llvm.lifetime.end.p0(i64 4, ptr %11) #4
  br label %58

56:                                               ; No predecessors!
  br label %57

57:                                               ; preds = %56
  store i32 0, ptr %10, align 4
  br label %58

58:                                               ; preds = %57, %55, %15
  call void @llvm.lifetime.end.p0(i64 8, ptr %9) #4
  call void @llvm.lifetime.end.p0(i64 8, ptr %8) #4
  call void @llvm.lifetime.end.p0(i64 8, ptr %7) #4
  call void @llvm.lifetime.end.p0(i64 8, ptr %6) #4
  %59 = load i32, ptr %10, align 4
  switch i32 %59, label %62 [
    i32 0, label %60
    i32 1, label %60
  ]

60:                                               ; preds = %58, %58
  %61 = load ptr, ptr %3, align 8
  ret ptr %61

62:                                               ; preds = %58
  unreachable
}